target datalayout = "e-m:e-p270:32:32-p271:32:32-p272:64:64-i64:64-i128:128-f80:128-n8:16:32:64-S128"
target triple = "x86_64-pc-linux-gnu"

%struct.WalSummarizerData = type { i8, i32, i64, i8, i32, i64, %struct.ConditionVariable }
%struct.ConditionVariable = type { i8, %struct.proclist_head }
%struct.proclist_head = type { i32, i32 }
%union.LWLockPadded = type { %struct.LWLock, [112 x i8] }
%struct.LWLock = type { i16, %struct.pg_atomic_uint32, %struct.proclist_head }
%struct.pg_atomic_uint32 = type { i32 }
%struct.PROC_HDR = type { ptr, ptr, ptr, ptr, i32, %struct.dlist_head, %struct.dlist_head, %struct.dlist_head, %struct.dlist_head, %struct.pg_atomic_uint32, %struct.pg_atomic_uint32, i32, i32, i32, i32 }
%struct.dlist_head = type { %struct.dlist_node }
%struct.dlist_node = type { ptr, ptr }
%struct.PGPROC = type { %struct.dlist_node, ptr, ptr, i32, %struct.Latch, i32, i32, i32, i32, %struct.anon, i32, i32, i32, i8, i8, i8, i8, %struct.proclist_node, %struct.proclist_node, ptr, ptr, i32, i32, %struct.pg_atomic_uint64, i32, i8, i64, i32, %struct.dlist_node, [16 x %struct.dlist_head], %struct.XidCacheStatus, %struct.XidCache, i8, %struct.pg_atomic_uint32, i32, i32, i8, %struct.pg_atomic_uint32, i32, i32, i64, i64, %struct.LWLock, ptr, ptr, i8, i32, ptr, %struct.dlist_head, %struct.dlist_node }
%struct.Latch = type { i32, i32, i8, i32 }
%struct.anon = type { i32, i32 }
%struct.proclist_node = type { i32, i32 }
%struct.pg_atomic_uint64 = type { i64 }
%struct.XidCacheStatus = type { i8, i8 }
%struct.XidCache = type { [64 x i32] }

@WalSummarizerCtl = internal global ptr null, align 8
@MainLWLockArray = external global ptr, align 8
@ProcGlobal = external global ptr, align 8

; Function Attrs: nounwind uwtable
define dso_local void @WakeupWalSummarizer() #0 {
  %1 = alloca i32, align 4
  %2 = alloca i32, align 4
  call void @llvm.lifetime.start.p0(i64 4, ptr %1) #12
  %3 = load ptr, ptr @WalSummarizerCtl, align 8
  %4 = icmp eq ptr %3, null
  br i1 %4, label %5, label %6

5:                                                ; preds = %0
  store i32 1, ptr %2, align 4
  br label %26

6:                                                ; preds = %0
  %7 = load ptr, ptr @MainLWLockArray, align 8
  %8 = getelementptr inbounds %union.LWLockPadded, ptr %7, i64 49
  %9 = call zeroext i1 @LWLockAcquire(ptr noundef %8, i32 noundef 0)
  %10 = load ptr, ptr @WalSummarizerCtl, align 8
  %11 = getelementptr inbounds nuw %struct.WalSummarizerData, ptr %10, i32 0, i32 4
  %12 = load i32, ptr %11, align 4
  store i32 %12, ptr %1, align 4
  %13 = load ptr, ptr @MainLWLockArray, align 8
  %14 = getelementptr inbounds %union.LWLockPadded, ptr %13, i64 49
  call void @LWLockRelease(ptr noundef %14)
  %15 = load i32, ptr %1, align 4
  %16 = icmp ne i32 %15, -1
  br i1 %16, label %17, label %25

17:                                               ; preds = %6
  %18 = load ptr, ptr @ProcGlobal, align 8
  %19 = getelementptr inbounds nuw %struct.PROC_HDR, ptr %18, i32 0, i32 0
  %20 = load ptr, ptr %19, align 8
  %21 = load i32, ptr %1, align 4
  %22 = sext i32 %21 to i64
  %23 = getelementptr inbounds %struct.PGPROC, ptr %20, i64 %22
  %24 = getelementptr inbounds nuw %struct.PGPROC, ptr %23, i32 0, i32 4
  call void @SetLatch(ptr noundef %24)
  br label %25

25:                                               ; preds = %17, %6
  store i32 0, ptr %2, align 4
  br label %26

26:                                               ; preds = %25, %5
  call void @llvm.lifetime.end.p0(i64 4, ptr %1) #12
  %27 = load i32, ptr %2, align 4
  switch i32 %27, label %29 [
    i32 0, label %28
    i32 1, label %28
  ]

28:                                               ; preds = %26, %26
  ret void

29:                                               ; preds = %26
  unreachable
}