; Function Attrs: nounwind uwtable
define dso_local void @WakeupWalSummarizer() local_unnamed_addr #1 {
  %1 = load ptr, ptr @WalSummarizerCtl, align 8
  %2 = icmp eq ptr %1, null
  br i1 %2, label %17, label %3

3:                                                ; preds = %0
  %4 = load ptr, ptr @MainLWLockArray, align 8
  %5 = getelementptr inbounds nuw i8, ptr %4, i64 6272
  %6 = tail call zeroext i1 @LWLockAcquire(ptr noundef nonnull %5, i32 noundef 0) #11
  %7 = load ptr, ptr @WalSummarizerCtl, align 8
  %8 = getelementptr inbounds nuw i8, ptr %7, i64 20
  %9 = load i32, ptr %8, align 4
  %10 = load ptr, ptr @MainLWLockArray, align 8
  %11 = getelementptr inbounds nuw i8, ptr %10, i64 6272
  tail call void @LWLockRelease(ptr noundef nonnull %11) #11
  %.not = icmp eq i32 %9, -1
  br i1 %.not, label %17, label %12

12:                                               ; preds = %3
  %13 = load ptr, ptr @ProcGlobal, align 8
  %14 = load ptr, ptr %13, align 8
  %15 = sext i32 %9 to i64
  %16 = getelementptr inbounds %struct.PGPROC, ptr %14, i64 %15, i32 4
  tail call void @SetLatch(ptr noundef nonnull %16) #11
  br label %17

17:                                               ; preds = %3, %12, %0
  ret void
}